target datalayout = "e-m:e-p270:32:32-p271:32:32-p272:64:64-i64:64-i128:128-f80:128-n8:16:32:64-S128"
target triple = "x86_64-pc-linux-gnu"

; Function Attrs: inlinehint mustprogress nounwind uwtable
define internal noundef signext i8 @_ZL9U_FAILURE10UErrorCode(i32 noundef %0) #6 {
  %2 = alloca i32, align 4
  store i32 %0, ptr %2, align 4, !tbaa !26
  %3 = load i32, ptr %2, align 4, !tbaa !26
  %4 = icmp sgt i32 %3, 0
  %5 = zext i1 %4 to i8
  ret i8 %5
}

; Function Attrs: mustprogress uwtable
define noundef i32 @_ZNK6icu_7717RuleBasedTimeZone9getOffsetEhiiihiiR10UErrorCode(ptr noundef nonnull align 8 dereferenceable(105) %0, i8 noundef zeroext %1, i32 noundef %2, i32 noundef %3, i32 noundef %4, i8 noundef zeroext %5, i32 noundef %6, i32 noundef %7, ptr noundef nonnull align 4 dereferenceable(4) %8) unnamed_addr #1 align 2 {
  %10 = alloca i32, align 4
  %11 = alloca ptr, align 8
  %12 = alloca i8, align 1
  %13 = alloca i32, align 4
  %14 = alloca i32, align 4
  %15 = alloca i32, align 4
  %16 = alloca i8, align 1
  %17 = alloca i32, align 4
  %18 = alloca i32, align 4
  %19 = alloca ptr, align 8
  %20 = alloca i32, align 4
  %21 = alloca i32, align 4
  %22 = alloca double, align 8
  %23 = alloca i32, align 4
  store ptr %0, ptr %11, align 8, !tbaa !3
  store i8 %1, ptr %12, align 1, !tbaa !43
  store i32 %2, ptr %13, align 4, !tbaa !29
  store i32 %3, ptr %14, align 4, !tbaa !29
  store i32 %4, ptr %15, align 4, !tbaa !29
  store i8 %5, ptr %16, align 1, !tbaa !43
  store i32 %6, ptr %17, align 4, !tbaa !29
  store i32 %7, ptr %18, align 4, !tbaa !29
  store ptr %8, ptr %19, align 8, !tbaa !33
  %24 = load ptr, ptr %11, align 8
  %25 = load ptr, ptr %19, align 8, !tbaa !33
  %26 = load i32, ptr %25, align 4, !tbaa !26
  %27 = call noundef signext i8 @_ZL9U_FAILURE10UErrorCode(i32 noundef %26)
  %28 = icmp ne i8 %27, 0
  br i1 %28, label %29, label %30

29:                                               ; preds = %9
  store i32 0, ptr %10, align 4
  br label %58

30:                                               ; preds = %9
  %31 = load i8, ptr %12, align 1, !tbaa !43
  %32 = zext i8 %31 to i32
  %33 = icmp eq i32 %32, 0
  br i1 %33, label %34, label %37

34:                                               ; preds = %30
  %35 = load i32, ptr %13, align 4, !tbaa !29
  %36 = sub nsw i32 1, %35
  store i32 %36, ptr %13, align 4, !tbaa !29
  br label %37

37:                                               ; preds = %34, %30
  call void @llvm.lifetime.start.p0(i64 4, ptr %20) #12
  call void @llvm.lifetime.start.p0(i64 4, ptr %21) #12
  call void @llvm.lifetime.start.p0(i64 8, ptr %22) #12
  %38 = load i32, ptr %13, align 4, !tbaa !29
  %39 = load i32, ptr %14, align 4, !tbaa !29
  %40 = load i32, ptr %15, align 4, !tbaa !29
  %41 = call noundef i64 @_ZN6icu_775Grego11fieldsToDayEiii(i32 noundef %38, i32 noundef %39, i32 noundef %40)
  %42 = sitofp i64 %41 to double
  %43 = load i32, ptr %17, align 4, !tbaa !29
  %44 = sitofp i32 %43 to double
  %45 = call double @llvm.fmuladd.f64(double %42, double 8.640000e+07, double %44)
  store double %45, ptr %22, align 8, !tbaa !36
  %46 = load double, ptr %22, align 8, !tbaa !36
  %47 = load ptr, ptr %19, align 8, !tbaa !33
  call void @_ZNK6icu_7717RuleBasedTimeZone17getOffsetInternalEdaiiRiS1_R10UErrorCode(ptr noundef nonnull align 8 dereferenceable(105) %24, double noundef %46, i8 noundef signext 1, i32 noundef 3, i32 noundef 1, ptr noundef nonnull align 4 dereferenceable(4) %20, ptr noundef nonnull align 4 dereferenceable(4) %21, ptr noundef nonnull align 4 dereferenceable(4) %47)
  %48 = load ptr, ptr %19, align 8, !tbaa !33
  %49 = load i32, ptr %48, align 4, !tbaa !26
  %50 = call noundef signext i8 @_ZL9U_FAILURE10UErrorCode(i32 noundef %49)
  %51 = icmp ne i8 %50, 0
  br i1 %51, label %52, label %53

52:                                               ; preds = %37
  store i32 0, ptr %10, align 4
  store i32 1, ptr %23, align 4
  br label %57

53:                                               ; preds = %37
  %54 = load i32, ptr %20, align 4, !tbaa !29
  %55 = load i32, ptr %21, align 4, !tbaa !29
  %56 = add nsw i32 %54, %55
  store i32 %56, ptr %10, align 4
  store i32 1, ptr %23, align 4
  br label %57

57:                                               ; preds = %53, %52
  call void @llvm.lifetime.end.p0(i64 8, ptr %22) #12
  call void @llvm.lifetime.end.p0(i64 4, ptr %21) #12
  call void @llvm.lifetime.end.p0(i64 4, ptr %20) #12
  br label %58

58:                                               ; preds = %57, %29
  %59 = load i32, ptr %10, align 4
  ret i32 %59
}