; Function Attrs: mustprogress uwtable
define noundef i32 @_ZNK6icu_7717RuleBasedTimeZone9getOffsetEhiiihiiR10UErrorCode(ptr noundef nonnull readonly align 8 captures(none) dereferenceable(105) %0, i8 noundef zeroext %1, i32 noundef %2, i32 noundef %3, i32 noundef %4, i8 zeroext %5, i32 noundef %6, i32 %7, ptr noundef nonnull align 4 captures(none) dereferenceable(4) %8) unnamed_addr #1 align 2 {
  %10 = alloca i32, align 4
  %11 = alloca i32, align 4
  %12 = load i32, ptr %8, align 4, !tbaa !21
  %13 = icmp slt i32 %12, 1
  br i1 %13, label %14, label %25

14:                                               ; preds = %9
  %15 = icmp eq i8 %1, 0
  %16 = sub nsw i32 1, %2
  %spec.select = select i1 %15, i32 %16, i32 %2
  call void @llvm.lifetime.start.p0(i64 4, ptr nonnull %10) #14
  call void @llvm.lifetime.start.p0(i64 4, ptr nonnull %11) #14
  %17 = tail call noundef i64 @_ZN6icu_775Grego11fieldsToDayEiii(i32 noundef %spec.select, i32 noundef %3, i32 noundef %4)
  %18 = sitofp i64 %17 to double
  %19 = sitofp i32 %6 to double
  %20 = tail call double @llvm.fmuladd.f64(double %18, double 8.640000e+07, double %19)
  call void @_ZNK6icu_7717RuleBasedTimeZone17getOffsetInternalEdaiiRiS1_R10UErrorCode(ptr noundef nonnull align 8 dereferenceable(105) %0, double noundef %20, i8 noundef signext 1, i32 noundef 3, i32 noundef 1, ptr noundef nonnull align 4 dereferenceable(4) %10, ptr noundef nonnull align 4 dereferenceable(4) %11, ptr noundef nonnull align 4 dereferenceable(4) %8)
  %21 = load i32, ptr %8, align 4, !tbaa !21
  %22 = load i32, ptr %10, align 4
  %23 = load i32, ptr %11, align 4
  %24 = add nsw i32 %23, %22
  %.inv = icmp sgt i32 %21, 0
  %.1 = select i1 %.inv, i32 0, i32 %24
  call void @llvm.lifetime.end.p0(i64 4, ptr nonnull %11) #14
  call void @llvm.lifetime.end.p0(i64 4, ptr nonnull %10) #14
  br label %25

25:                                               ; preds = %9, %14
  %.0 = phi i32 [ %.1, %14 ], [ 0, %9 ]
  ret i32 %.0
}